target datalayout = "e-m:e-p270:32:32-p271:32:32-p272:64:64-i64:64-i128:128-f80:128-n8:16:32:64-S128"
target triple = "x86_64-pc-linux-gnu"

%"class.pxrInternal_v0_24__pxrReserved__::HgiShaderGenerator" = type { ptr, ptr, %"class.std::__cxx11::basic_string" }
%"class.std::__cxx11::basic_string" = type { %"struct.std::__cxx11::basic_string<char>::_Alloc_hider", i64, %union.anon }
%"struct.std::__cxx11::basic_string<char>::_Alloc_hider" = type { ptr }
%union.anon = type { i64, [8 x i8] }
%"struct.pxrInternal_v0_24__pxrReserved__::HgiShaderFunctionDesc" = type <{ %"class.std::__cxx11::basic_string", i32, [4 x i8], ptr, ptr, ptr, %"class.std::vector", %"class.std::vector.3", %"class.std::vector.8", %"class.std::vector.8", %"class.std::vector.8", %"class.std::vector.8", %"class.std::vector.13", %"class.std::vector.13", %"struct.pxrInternal_v0_24__pxrReserved__::HgiShaderFunctionComputeDesc", [4 x i8], %"struct.pxrInternal_v0_24__pxrReserved__::HgiShaderFunctionTessellationDesc", %"struct.pxrInternal_v0_24__pxrReserved__::HgiShaderFunctionGeometryDesc", %"struct.pxrInternal_v0_24__pxrReserved__::HgiShaderFunctionFragmentDesc", [7 x i8] }>
%"class.std::vector" = type { %"struct.std::_Vector_base" }
%"struct.std::_Vector_base" = type { %"struct.std::_Vector_base<pxrInternal_v0_24__pxrReserved__::HgiShaderFunctionTextureDesc, std::allocator<pxrInternal_v0_24__pxrReserved__::HgiShaderFunctionTextureDesc>>::_Vector_impl" }
%"struct.std::_Vector_base<pxrInternal_v0_24__pxrReserved__::HgiShaderFunctionTextureDesc, std::allocator<pxrInternal_v0_24__pxrReserved__::HgiShaderFunctionTextureDesc>>::_Vector_impl" = type { %"struct.std::_Vector_base<pxrInternal_v0_24__pxrReserved__::HgiShaderFunctionTextureDesc, std::allocator<pxrInternal_v0_24__pxrReserved__::HgiShaderFunctionTextureDesc>>::_Vector_impl_data" }
%"struct.std::_Vector_base<pxrInternal_v0_24__pxrReserved__::HgiShaderFunctionTextureDesc, std::allocator<pxrInternal_v0_24__pxrReserved__::HgiShaderFunctionTextureDesc>>::_Vector_impl_data" = type { ptr, ptr, ptr }
%"class.std::vector.3" = type { %"struct.std::_Vector_base.4" }
%"struct.std::_Vector_base.4" = type { %"struct.std::_Vector_base<pxrInternal_v0_24__pxrReserved__::HgiShaderFunctionBufferDesc, std::allocator<pxrInternal_v0_24__pxrReserved__::HgiShaderFunctionBufferDesc>>::_Vector_impl" }
%"struct.std::_Vector_base<pxrInternal_v0_24__pxrReserved__::HgiShaderFunctionBufferDesc, std::allocator<pxrInternal_v0_24__pxrReserved__::HgiShaderFunctionBufferDesc>>::_Vector_impl" = type { %"struct.std::_Vector_base<pxrInternal_v0_24__pxrReserved__::HgiShaderFunctionBufferDesc, std::allocator<pxrInternal_v0_24__pxrReserved__::HgiShaderFunctionBufferDesc>>::_Vector_impl_data" }
%"struct.std::_Vector_base<pxrInternal_v0_24__pxrReserved__::HgiShaderFunctionBufferDesc, std::allocator<pxrInternal_v0_24__pxrReserved__::HgiShaderFunctionBufferDesc>>::_Vector_impl_data" = type { ptr, ptr, ptr }
%"class.std::vector.8" = type { %"struct.std::_Vector_base.9" }
%"struct.std::_Vector_base.9" = type { %"struct.std::_Vector_base<pxrInternal_v0_24__pxrReserved__::HgiShaderFunctionParamDesc, std::allocator<pxrInternal_v0_24__pxrReserved__::HgiShaderFunctionParamDesc>>::_Vector_impl" }
%"struct.std::_Vector_base<pxrInternal_v0_24__pxrReserved__::HgiShaderFunctionParamDesc, std::allocator<pxrInternal_v0_24__pxrReserved__::HgiShaderFunctionParamDesc>>::_Vector_impl" = type { %"struct.std::_Vector_base<pxrInternal_v0_24__pxrReserved__::HgiShaderFunctionParamDesc, std::allocator<pxrInternal_v0_24__pxrReserved__::HgiShaderFunctionParamDesc>>::_Vector_impl_data" }
%"struct.std::_Vector_base<pxrInternal_v0_24__pxrReserved__::HgiShaderFunctionParamDesc, std::allocator<pxrInternal_v0_24__pxrReserved__::HgiShaderFunctionParamDesc>>::_Vector_impl_data" = type { ptr, ptr, ptr }
%"class.std::vector.13" = type { %"struct.std::_Vector_base.14" }
%"struct.std::_Vector_base.14" = type { %"struct.std::_Vector_base<pxrInternal_v0_24__pxrReserved__::HgiShaderFunctionParamBlockDesc, std::allocator<pxrInternal_v0_24__pxrReserved__::HgiShaderFunctionParamBlockDesc>>::_Vector_impl" }
%"struct.std::_Vector_base<pxrInternal_v0_24__pxrReserved__::HgiShaderFunctionParamBlockDesc, std::allocator<pxrInternal_v0_24__pxrReserved__::HgiShaderFunctionParamBlockDesc>>::_Vector_impl" = type { %"struct.std::_Vector_base<pxrInternal_v0_24__pxrReserved__::HgiShaderFunctionParamBlockDesc, std::allocator<pxrInternal_v0_24__pxrReserved__::HgiShaderFunctionParamBlockDesc>>::_Vector_impl_data" }
%"struct.std::_Vector_base<pxrInternal_v0_24__pxrReserved__::HgiShaderFunctionParamBlockDesc, std::allocator<pxrInternal_v0_24__pxrReserved__::HgiShaderFunctionParamBlockDesc>>::_Vector_impl_data" = type { ptr, ptr, ptr }
%"struct.pxrInternal_v0_24__pxrReserved__::HgiShaderFunctionComputeDesc" = type { %"class.pxrInternal_v0_24__pxrReserved__::GfVec3i" }
%"class.pxrInternal_v0_24__pxrReserved__::GfVec3i" = type { [3 x i32] }
%"struct.pxrInternal_v0_24__pxrReserved__::HgiShaderFunctionTessellationDesc" = type { i32, i32, i32, %"class.std::__cxx11::basic_string", %"class.std::__cxx11::basic_string" }
%"struct.pxrInternal_v0_24__pxrReserved__::HgiShaderFunctionGeometryDesc" = type { i32, i32, %"class.std::__cxx11::basic_string" }
%"struct.pxrInternal_v0_24__pxrReserved__::HgiShaderFunctionFragmentDesc" = type { i8 }

; Function Attrs: mustprogress nounwind uwtable
define noundef ptr @_ZNK32pxrInternal_v0_24__pxrReserved__18HgiShaderGenerator22GetGeneratedShaderCodeEv(ptr noundef nonnull align 8 dereferenceable(48) %0) #0 align 2 {
  %2 = alloca ptr, align 8
  %3 = alloca ptr, align 8
  store ptr %0, ptr %3, align 8
  %4 = load ptr, ptr %3, align 8
  %5 = getelementptr inbounds nuw %"class.pxrInternal_v0_24__pxrReserved__::HgiShaderGenerator", ptr %4, i32 0, i32 1
  %6 = load ptr, ptr %5, align 8
  %7 = getelementptr inbounds nuw %"struct.pxrInternal_v0_24__pxrReserved__::HgiShaderFunctionDesc", ptr %6, i32 0, i32 5
  %8 = load ptr, ptr %7, align 8
  %9 = icmp ne ptr %8, null
  br i1 %9, label %10, label %16

10:                                               ; preds = %1
  %11 = getelementptr inbounds nuw %"class.pxrInternal_v0_24__pxrReserved__::HgiShaderGenerator", ptr %4, i32 0, i32 1
  %12 = load ptr, ptr %11, align 8
  %13 = getelementptr inbounds nuw %"struct.pxrInternal_v0_24__pxrReserved__::HgiShaderFunctionDesc", ptr %12, i32 0, i32 5
  %14 = load ptr, ptr %13, align 8
  %15 = call noundef ptr @_ZNKSt7__cxx1112basic_stringIcSt11char_traitsIcESaIcEE5c_strEv(ptr noundef nonnull align 8 dereferenceable(32) %14) #5
  store ptr %15, ptr %2, align 8
  br label %19

16:                                               ; preds = %1
  %17 = getelementptr inbounds nuw %"class.pxrInternal_v0_24__pxrReserved__::HgiShaderGenerator", ptr %4, i32 0, i32 2
  %18 = call noundef ptr @_ZNKSt7__cxx1112basic_stringIcSt11char_traitsIcESaIcEE5c_strEv(ptr noundef nonnull align 8 dereferenceable(32) %17) #5
  store ptr %18, ptr %2, align 8
  br label %19

19:                                               ; preds = %16, %10
  %20 = load ptr, ptr %2, align 8
  ret ptr %20
}