; Function Attrs: mustprogress nounwind uwtable
define noundef ptr @_ZNK32pxrInternal_v0_24__pxrReserved__18HgiShaderGenerator22GetGeneratedShaderCodeEv(ptr noundef nonnull align 8 dereferenceable(48) %0) local_unnamed_addr #0 align 2 {
  %2 = getelementptr inbounds nuw i8, ptr %0, i64 8
  %3 = load ptr, ptr %2, align 8
  %4 = getelementptr inbounds nuw i8, ptr %3, i64 56
  %5 = load ptr, ptr %4, align 8
  %.not = icmp eq ptr %5, null
  %6 = getelementptr inbounds nuw i8, ptr %0, i64 16
  %.sink = select i1 %.not, ptr %6, ptr %5
  %7 = tail call noundef ptr @_ZNKSt7__cxx1112basic_stringIcSt11char_traitsIcESaIcEE5c_strEv(ptr noundef nonnull align 8 dereferenceable(32) %.sink) #7
  ret ptr %7
}